; Function Attrs: mustprogress nofree norecurse nounwind willreturn memory(read, inaccessiblemem: none) uwtable
define internal range(i32 0, 101) i32 @probe(ptr noundef readonly captures(none) %0) #0 {
  %2 = getelementptr inbounds nuw i8, ptr %0, i64 8
  %3 = load ptr, ptr %2, align 8, !tbaa !4
  %4 = load i32, ptr %3, align 1, !tbaa !11
  %5 = icmp eq i32 %4, 1230392397
  br i1 %5, label %6, label %12

6:                                                ; preds = %1
  %7 = getelementptr inbounds nuw i8, ptr %3, i64 4
  %8 = load i32, ptr %7, align 1, !tbaa !11
  %9 = icmp ugt i32 %8, 51
  br i1 %9, label %10, label %12

10:                                               ; preds = %6
  %11 = getelementptr inbounds nuw i8, ptr %3, i64 8
  %bcmp = tail call i32 @bcmp(ptr noundef nonnull dereferenceable(5) %11, ptr noundef nonnull dereferenceable(5) @.str.2, i64 5)
  %.not = icmp eq i32 %bcmp, 0
  br i1 %.not, label %13, label %12

12:                                               ; preds = %10, %6, %1
  br label %13

13:                                               ; preds = %10, %12
  %.0 = phi i32 [ 0, %12 ], [ 100, %10 ]
  ret i32 %.0
}